	.file	"CThreadSlotData.cpp"
	.text
.Ltext0:
	.cfi_sections	.debug_frame
	.section	.text$_ZN11CSimpleListIP13TagThreadDataED1Ev,"x"
	.linkonce discard
	.align 2
	.p2align 4,,15
	.globl	_ZN11CSimpleListIP13TagThreadDataED1Ev
	.def	_ZN11CSimpleListIP13TagThreadDataED1Ev;	.scl	2;	.type	32;	.endef
	.seh_proc	_ZN11CSimpleListIP13TagThreadDataED1Ev
_ZN11CSimpleListIP13TagThreadDataED1Ev:
.LFB5372:
	.file 1 "CSimpleList.h"
	.loc 1 47 0
	.cfi_startproc
.LVL0:
	.seh_endprologue
.LBB38:
	.loc 1 50 0
	leaq	16+_ZTV11CSimpleListIP13TagThreadDataE(%rip), %rax
	movq	%rax, (%rcx)
.LBE38:
.LBB39:
	jmp	_ZN11ISimpleListD2Ev
.LVL1:
.LBE39:
	.cfi_endproc
.LFE5372:
	.seh_endproc
	.section	.text$_ZN11CSimpleListIP13TagThreadDataED0Ev,"x"
	.linkonce discard
	.align 2
	.p2align 4,,15
	.globl	_ZN11CSimpleListIP13TagThreadDataED0Ev
	.def	_ZN11CSimpleListIP13TagThreadDataED0Ev;	.scl	2;	.type	32;	.endef
	.seh_proc	_ZN11CSimpleListIP13TagThreadDataED0Ev
_ZN11CSimpleListIP13TagThreadDataED0Ev:
.LFB5373:
	.loc 1 47 0
	.cfi_startproc
.LVL2:
	pushq	%rbx
	.seh_pushreg	%rbx
	.cfi_def_cfa_offset 16
	.cfi_offset 3, -16
	subq	$32, %rsp
	.seh_stackalloc	32
	.cfi_def_cfa_offset 48
	.seh_endprologue
.LVL3:
.LBB40:
.LBB41:
	.loc 1 50 0
	leaq	16+_ZTV11CSimpleListIP13TagThreadDataE(%rip), %rax
.LBE41:
.LBE40:
	.loc 1 47 0
	movq	%rcx, %rbx
.LBB43:
.LBB42:
	.loc 1 50 0
	movq	%rax, (%rcx)
	call	_ZN11ISimpleListD2Ev
.LVL4:
.LBE42:
.LBE43:
	movq	%rbx, %rcx
	addq	$32, %rsp
	.cfi_def_cfa_offset 16
	popq	%rbx
	.cfi_restore 3
	.cfi_def_cfa_offset 8
.LVL5:
	jmp	_ZdlPv
.LVL6:
	.cfi_endproc
.LFE5373:
	.seh_endproc
	.text
	.p2align 4,,15
	.globl	_ZN15CThreadSlotDatanwEmPv
	.def	_ZN15CThreadSlotDatanwEmPv;	.scl	2;	.type	32;	.endef
	.seh_proc	_ZN15CThreadSlotDatanwEmPv
_ZN15CThreadSlotDatanwEmPv:
.LFB5353:
	.file 2 "CThreadSlotData.cpp"
	.loc 2 24 0
	.cfi_startproc
.LVL7:
	.seh_endprologue
	.loc 2 24 0
	movq	%rdx, %rax
	.loc 2 26 0
	ret
	.cfi_endproc
.LFE5353:
	.seh_endproc
	.p2align 4,,15
	.globl	_ZN15CThreadSlotDatadlEPvS0_
	.def	_ZN15CThreadSlotDatadlEPvS0_;	.scl	2;	.type	32;	.endef
	.seh_proc	_ZN15CThreadSlotDatadlEPvS0_
_ZN15CThreadSlotDatadlEPvS0_:
.LFB5380:
	.cfi_startproc
	.seh_endprologue
	ret
	.cfi_endproc
.LFE5380:
	.seh_endproc
	.p2align 4,,15
	.globl	_ZN15CThreadSlotDatadaEPvS0_
	.def	_ZN15CThreadSlotDatadaEPvS0_;	.scl	2;	.type	32;	.endef
	.seh_proc	_ZN15CThreadSlotDatadaEPvS0_
_ZN15CThreadSlotDatadaEPvS0_:
.LFB5355:
	.loc 2 32 0
	.cfi_startproc
.LVL8:
	.loc 2 32 0
	.seh_endprologue
.LVL9:
	ret
	.cfi_endproc
.LFE5355:
	.seh_endproc
	.p2align 4,,15
	.globl	_ZN15CThreadSlotDatadlEPv
	.def	_ZN15CThreadSlotDatadlEPv;	.scl	2;	.type	32;	.endef
	.seh_proc	_ZN15CThreadSlotDatadlEPv
_ZN15CThreadSlotDatadlEPv:
.LFB5378:
	.cfi_startproc
	.seh_endprologue
	ret
	.cfi_endproc
.LFE5378:
	.seh_endproc
	.p2align 4,,15
	.globl	_ZN15CThreadSlotDatadaEPv
	.def	_ZN15CThreadSlotDatadaEPv;	.scl	2;	.type	32;	.endef
	.seh_proc	_ZN15CThreadSlotDatadaEPv
_ZN15CThreadSlotDatadaEPv:
.LFB5357:
	.loc 2 40 0
	.cfi_startproc
.LVL10:
	.loc 2 40 0
	.seh_endprologue
.LVL11:
	ret
	.cfi_endproc
.LFE5357:
	.seh_endproc
	.align 2
	.p2align 4,,15
	.globl	_ZN15CThreadSlotData4InitEv
	.def	_ZN15CThreadSlotData4InitEv;	.scl	2;	.type	32;	.endef
	.seh_proc	_ZN15CThreadSlotData4InitEv
_ZN15CThreadSlotData4InitEv:
.LFB5358:
	.loc 2 49 0
	.cfi_startproc
	.cfi_personality 0x9b,.LDFCM0
	.cfi_lsda 0x1c,.LLSDA5358
.LVL12:
	.loc 2 49 0
	pushq	%rsi
	.seh_pushreg	%rsi
	.cfi_def_cfa_offset 16
	.cfi_offset 4, -16
	pushq	%rbx
	.seh_pushreg	%rbx
	.cfi_def_cfa_offset 24
	.cfi_offset 3, -24
	subq	$40, %rsp
	.seh_stackalloc	40
	.cfi_def_cfa_offset 64
	.seh_endprologue
	.loc 2 49 0
	movq	%rcx, %rbx
	.loc 2 50 0
	movl	$24, %ecx
.LVL13:
.LEHB0:
	call	_Znwm
.LVL14:
.LEHE0:
.LBB44:
.LBB45:
	.loc 1 43 0
	xorl	%edx, %edx
	movq	%rax, %rcx
.LBE45:
.LBE44:
	.loc 2 50 0
	movq	%rax, %rsi
.LVL15:
.LEHB1:
.LBB49:
.LBB46:
	.loc 1 43 0
	call	_ZN11ISimpleListC2Ej
.LVL16:
.LEHE1:
.LBE46:
.LBE49:
	.loc 2 52 0
	leaq	32(%rbx), %rcx
.LBB50:
.LBB47:
	.loc 1 43 0
	leaq	16+_ZTV11CSimpleListIP13TagThreadDataE(%rip), %rax
.LBE47:
.LBE50:
	.loc 2 52 0
	xorl	%edx, %edx
	.loc 2 50 0
	movq	%rsi, 24(%rbx)
.LBB51:
.LBB48:
	.loc 1 43 0
	movq	%rax, (%rsi)
.LVL17:
.LEHB2:
.LBE48:
.LBE51:
	.loc 2 52 0
	call	pthread_key_create
.LVL18:
	.loc 2 54 0
	leaq	40(%rbx), %rcx
	.loc 2 54 0
	xorl	%edx, %edx
	.loc 2 55 0
	addq	$40, %rsp
	.cfi_remember_state
	.cfi_def_cfa_offset 24
	popq	%rbx
	.cfi_restore 3
	.cfi_def_cfa_offset 16
.LVL19:
	popq	%rsi
	.cfi_restore 4
	.cfi_def_cfa_offset 8
	.loc 2 54 0
	jmp	pthread_mutex_init
.LVL20:
.L10:
	.cfi_restore_state
	movq	%rax, %rbx
.LVL21:
	.loc 2 50 0
	movq	%rsi, %rcx
	call	_ZdlPv
.LVL22:
	movq	%rbx, %rcx
	call	_Unwind_Resume
	nop
.LVL23:
.LEHE2:
	.cfi_endproc
.LFE5358:
	.def	__gxx_personality_seh0;	.scl	2;	.type	32;	.endef
	.seh_handler	__gxx_personality_seh0, @unwind, @except
	.seh_handlerdata
.LLSDA5358:
	.byte	0xff
	.byte	0xff
	.byte	0x1
	.uleb128 .LLSDACSE5358-.LLSDACSB5358
.LLSDACSB5358:
	.uleb128 .LEHB0-.LFB5358
	.uleb128 .LEHE0-.LEHB0
	.uleb128 0
	.uleb128 0
	.uleb128 .LEHB1-.LFB5358
	.uleb128 .LEHE1-.LEHB1
	.uleb128 .L10-.LFB5358
	.uleb128 0
	.uleb128 .LEHB2-.LFB5358
	.uleb128 .LEHE2-.LEHB2
	.uleb128 0
	.uleb128 0
.LLSDACSE5358:
	.text
	.seh_endproc
	.align 2
	.p2align 4,,15
	.globl	_ZN15CThreadSlotDataC2Ev
	.def	_ZN15CThreadSlotDataC2Ev;	.scl	2;	.type	32;	.endef
	.seh_proc	_ZN15CThreadSlotDataC2Ev
_ZN15CThreadSlotDataC2Ev:
.LFB5347:
	.loc 2 7 0
	.cfi_startproc
.LVL24:
	.seh_endprologue
.LBB52:
	.loc 2 7 0
	leaq	16+_ZTV15CThreadSlotData(%rip), %rax
	.loc 2 9 0
	movq	$0, 8(%rcx)
	.loc 2 10 0
	movl	$0, 16(%rcx)
	.loc 2 7 0
	movq	%rax, (%rcx)
	.loc 2 11 0
	movl	$0, 20(%rcx)
	.loc 2 13 0
	movq	$0, 24(%rcx)
	.loc 2 15 0
	movq	$0, 32(%rcx)
.LBE52:
	.loc 2 18 0
.LBB53:
	.loc 2 17 0
	jmp	_ZN15CThreadSlotData4InitEv
.LVL25:
.LBE53:
	.cfi_endproc
.LFE5347:
	.seh_endproc
	.globl	_ZN15CThreadSlotDataC1Ev
	.def	_ZN15CThreadSlotDataC1Ev;	.scl	2;	.type	32;	.endef
	.set	_ZN15CThreadSlotDataC1Ev,_ZN15CThreadSlotDataC2Ev
	.align 2
	.p2align 4,,15
	.globl	_ZN15CThreadSlotData9AllocSlotEPj
	.def	_ZN15CThreadSlotData9AllocSlotEPj;	.scl	2;	.type	32;	.endef
	.seh_proc	_ZN15CThreadSlotData9AllocSlotEPj
_ZN15CThreadSlotData9AllocSlotEPj:
.LFB5360:
	.loc 2 72 0
	.cfi_startproc
.LVL26:
	pushq	%r12
	.seh_pushreg	%r12
	.cfi_def_cfa_offset 16
	.cfi_offset 12, -16
	pushq	%rbp
	.seh_pushreg	%rbp
	.cfi_def_cfa_offset 24
	.cfi_offset 6, -24
	pushq	%rdi
	.seh_pushreg	%rdi
	.cfi_def_cfa_offset 32
	.cfi_offset 5, -32
	pushq	%rsi
	.seh_pushreg	%rsi
	.cfi_def_cfa_offset 40
	.cfi_offset 4, -40
	pushq	%rbx
	.seh_pushreg	%rbx
	.cfi_def_cfa_offset 48
	.cfi_offset 3, -48
	subq	$32, %rsp
	.seh_stackalloc	32
	.cfi_def_cfa_offset 80
	.seh_endprologue
	.loc 2 73 0
	leaq	40(%rcx), %rsi
	.loc 2 72 0
	movq	%rcx, %rbp
	movq	%rdx, %rdi
	.loc 2 73 0
	movq	%rsi, %rcx
.LVL27:
	call	pthread_mutex_lock
.LVL28:
	.loc 2 75 0
	movl	20(%rbp), %eax
.LBB54:
	.loc 2 77 0
	movl	16(%rbp), %ebx
	movq	8(%rbp), %rcx
.LBE54:
	.loc 2 75 0
	addl	$1, %eax
.LBB63:
	.loc 2 77 0
	cmpl	%ebx, %eax
.LBE63:
	.loc 2 75 0
	movl	%eax, 20(%rbp)
.LBB64:
	.loc 2 77 0
	jnb	.L15
	.loc 2 77 0 is_stmt 0 discriminator 1
	movl	%eax, %edx
	leaq	(%rcx,%rdx,4), %rdx
	cmpl	$1, (%rdx)
	je	.L15
.L16:
.LBE64:
	.loc 2 108 0 is_stmt 1
	movq	%rsi, %rcx
	.loc 2 104 0
	movl	$1, (%rdx)
	.loc 2 106 0
	movl	%eax, (%rdi)
	.loc 2 109 0
	addq	$32, %rsp
	.cfi_remember_state
	.cfi_def_cfa_offset 48
	popq	%rbx
	.cfi_restore 3
	.cfi_def_cfa_offset 40
	popq	%rsi
	.cfi_restore 4
	.cfi_def_cfa_offset 32
	popq	%rdi
	.cfi_restore 5
	.cfi_def_cfa_offset 24
.LVL29:
	popq	%rbp
	.cfi_restore 6
	.cfi_def_cfa_offset 16
.LVL30:
	popq	%r12
	.cfi_restore 12
	.cfi_def_cfa_offset 8
	.loc 2 108 0
	jmp	pthread_mutex_unlock
.LVL31:
	.p2align 4,,10
.L15:
	.cfi_restore_state
.LBB65:
.LBB55:
	.loc 2 79 0
	cmpl	$1, %ebx
	movl	$1, 20(%rbp)
	jbe	.L29
	cmpl	$1, 4(%rcx)
	leaq	8(%rcx), %r8
	movl	$2, %eax
	je	.L22
	jmp	.L30
	.p2align 4,,10
.L24:
	.loc 2 79 0 is_stmt 0 discriminator 2
	movq	%r8, %rdx
	leal	1(%rax), %r9d
	leaq	4(%r8), %r8
	cmpl	$1, (%rdx)
	jne	.L31
	movl	%r9d, %eax
.L22:
	.loc 2 79 0 discriminator 3
	cmpl	%eax, %ebx
	jne	.L24
.LBB56:
.LBB57:
	.loc 2 86 0 is_stmt 1
	leal	32(%rbx), %r12d
.LVL32:
	movl	%ebx, 20(%rbp)
.L19:
.LBB58:
.LBB59:
	.loc 2 94 0
	movl	%r12d, %edx
	salq	$2, %rdx
	call	realloc
.LVL33:
	movl	16(%rbp), %ebx
	.loc 2 95 0
	movq	%rax, 8(%rbp)
.LVL34:
.L25:
.LBE59:
.LBE58:
	.loc 2 98 0
	movl	%r12d, %r8d
	leaq	(%rax,%rbx,4), %rcx
	xorl	%edx, %edx
	subl	%ebx, %r8d
	salq	$2, %r8
	call	memset
.LVL35:
	movl	20(%rbp), %ecx
	movq	8(%rbp), %rdx
	.loc 2 100 0
	movl	%r12d, 16(%rbp)
	movq	%rcx, %rax
	leaq	(%rdx,%rcx,4), %rdx
.LBE57:
	jmp	.L16
.LVL36:
	.p2align 4,,10
.L31:
	movl	%eax, 20(%rbp)
	jmp	.L16
.L29:
.LBB62:
.LBB60:
	.loc 2 88 0
	testq	%rcx, %rcx
.LBE60:
	.loc 2 86 0
	leal	32(%rbx), %r12d
.LVL37:
.LBB61:
	.loc 2 88 0
	jne	.L19
	.loc 2 90 0
	movl	%r12d, %ecx
	salq	$2, %rcx
	call	malloc
.LVL38:
	movq	%rax, 8(%rbp)
	jmp	.L25
.LVL39:
.L30:
	leaq	4(%rcx), %rdx
.LBE61:
.LBE62:
.LBE56:
	.loc 2 79 0
	movl	$1, %eax
	jmp	.L16
.LBE55:
.LBE65:
	.cfi_endproc
.LFE5360:
	.seh_endproc
	.align 2
	.p2align 4,,15
	.globl	_ZN15CThreadSlotData8FreeSlotEj
	.def	_ZN15CThreadSlotData8FreeSlotEj;	.scl	2;	.type	32;	.endef
	.seh_proc	_ZN15CThreadSlotData8FreeSlotEj
_ZN15CThreadSlotData8FreeSlotEj:
.LFB5361:
	.loc 2 111 0
	.cfi_startproc
.LVL40:
	pushq	%r13
	.seh_pushreg	%r13
	.cfi_def_cfa_offset 16
	.cfi_offset 13, -16
	pushq	%r12
	.seh_pushreg	%r12
	.cfi_def_cfa_offset 24
	.cfi_offset 12, -24
	pushq	%rbp
	.seh_pushreg	%rbp
	.cfi_def_cfa_offset 32
	.cfi_offset 6, -32
	pushq	%rdi
	.seh_pushreg	%rdi
	.cfi_def_cfa_offset 40
	.cfi_offset 5, -40
	pushq	%rsi
	.seh_pushreg	%rsi
	.cfi_def_cfa_offset 48
	.cfi_offset 4, -48
	pushq	%rbx
	.seh_pushreg	%rbx
	.cfi_def_cfa_offset 56
	.cfi_offset 3, -56
	subq	$40, %rsp
	.seh_stackalloc	40
	.cfi_def_cfa_offset 96
	.seh_endprologue
	.loc 2 112 0
	leaq	40(%rcx), %r12
	.loc 2 111 0
	movq	%rcx, %rbp
	movl	%edx, %r13d
	movq	%r13, %rsi
	.loc 2 119 0
	leaq	0(,%r13,8), %rdi
	.loc 2 112 0
	movq	%r12, %rcx
.LVL41:
	call	pthread_mutex_lock
.LVL42:
.LBB66:
.LBB67:
	.loc 1 54 0
	movq	24(%rbp), %rcx
	call	_ZNK11ISimpleList7GetHeadEv
.LVL43:
.LBE67:
.LBE66:
	.loc 2 115 0
	testq	%rax, %rax
.LBB69:
.LBB68:
	.loc 1 54 0
	movq	%rax, %rbx
.LVL44:
.LBE68:
.LBE69:
	.loc 2 115 0
	je	.L36
.LVL45:
	.p2align 4,,10
.L42:
	.loc 2 117 0
	cmpl	%esi, 8(%rbx)
	jbe	.L34
	.loc 2 119 0
	movq	%rdi, %rax
	addq	16(%rbx), %rax
	movq	(%rax), %rcx
	testq	%rcx, %rcx
	je	.L35
	.loc 2 119 0 is_stmt 0 discriminator 1
	movq	(%rcx), %rax
	call	*8(%rax)
.LVL46:
	movq	%rdi, %rax
	addq	16(%rbx), %rax
.L35:
	.loc 2 120 0 is_stmt 1
	movq	$0, (%rax)
.L34:
	.loc 2 122 0
	movq	(%rbx), %rbx
.LVL47:
	.loc 2 115 0
	testq	%rbx, %rbx
	jne	.L42
.L36:
	.loc 2 125 0
	movq	8(%rbp), %rax
	.loc 2 127 0
	movq	%r12, %rcx
	.loc 2 125 0
	movl	$0, (%rax,%r13,4)
	.loc 2 128 0
	addq	$40, %rsp
	.cfi_def_cfa_offset 56
	popq	%rbx
	.cfi_restore 3
	.cfi_def_cfa_offset 48
.LVL48:
	popq	%rsi
	.cfi_restore 4
	.cfi_def_cfa_offset 40
.LVL49:
	popq	%rdi
	.cfi_restore 5
	.cfi_def_cfa_offset 32
	popq	%rbp
	.cfi_restore 6
	.cfi_def_cfa_offset 24
.LVL50:
	popq	%r12
	.cfi_restore 12
	.cfi_def_cfa_offset 16
.LVL51:
	popq	%r13
	.cfi_restore 13
	.cfi_def_cfa_offset 8
.LVL52:
	.loc 2 127 0
	jmp	pthread_mutex_unlock
.LVL53:
	.cfi_endproc
.LFE5361:
	.seh_endproc
	.align 2
	.p2align 4,,15
	.globl	_ZN15CThreadSlotData8SetValueEjPv
	.def	_ZN15CThreadSlotData8SetValueEjPv;	.scl	2;	.type	32;	.endef
	.seh_proc	_ZN15CThreadSlotData8SetValueEjPv
_ZN15CThreadSlotData8SetValueEjPv:
.LFB5362:
	.loc 2 130 0
	.cfi_startproc
.LVL54:
	pushq	%r12
	.seh_pushreg	%r12
	.cfi_def_cfa_offset 16
	.cfi_offset 12, -16
	pushq	%rbp
	.seh_pushreg	%rbp
	.cfi_def_cfa_offset 24
	.cfi_offset 6, -24
	pushq	%rdi
	.seh_pushreg	%rdi
	.cfi_def_cfa_offset 32
	.cfi_offset 5, -32
	pushq	%rsi
	.seh_pushreg	%rsi
	.cfi_def_cfa_offset 40
	.cfi_offset 4, -40
	pushq	%rbx
	.seh_pushreg	%rbx
	.cfi_def_cfa_offset 48
	.cfi_offset 3, -48
	subq	$32, %rsp
	.seh_stackalloc	32
	.cfi_def_cfa_offset 80
	.seh_endprologue
	.loc 2 130 0
	movq	%rcx, %rdi
	.loc 2 131 0
	movq	32(%rcx), %rcx
.LVL55:
	.loc 2 130 0
	movl	%edx, %esi
	movq	%r8, %rbp
	.loc 2 131 0
	call	pthread_getspecific
.LVL56:
	.loc 2 133 0
	testq	%rax, %rax
	.loc 2 131 0
	movq	%rax, %rbx
.LVL57:
	.loc 2 133 0
	je	.L49
.LVL58:
.L46:
	.loc 2 146 0
	movq	16(%rbx), %rcx
	testq	%rcx, %rcx
	je	.L50
	.loc 2 152 0
	cmpl	%esi, 8(%rbx)
	ja	.L48
	.loc 2 154 0
	movl	16(%rdi), %edx
	salq	$3, %rdx
	call	realloc
.LVL59:
	.loc 2 155 0
	movl	8(%rbx), %edx
	movl	16(%rdi), %r8d
	.loc 2 154 0
	movq	%rax, 16(%rbx)
	.loc 2 155 0
	leaq	(%rax,%rdx,8), %rcx
	subl	%edx, %r8d
	xorl	%edx, %edx
	salq	$3, %r8
	call	memset
.LVL60:
	.loc 2 156 0
	movl	16(%rdi), %eax
	movq	16(%rbx), %rcx
	movl	%eax, 8(%rbx)
.LVL61:
.L48:
	.loc 2 159 0
	movq	%rbp, (%rcx,%rsi,8)
	.loc 2 160 0
	addq	$32, %rsp
	.cfi_remember_state
	.cfi_def_cfa_offset 48
	popq	%rbx
	.cfi_restore 3
	.cfi_def_cfa_offset 40
.LVL62:
	popq	%rsi
	.cfi_restore 4
	.cfi_def_cfa_offset 32
.LVL63:
	popq	%rdi
	.cfi_restore 5
	.cfi_def_cfa_offset 24
	popq	%rbp
	.cfi_restore 6
	.cfi_def_cfa_offset 16
.LVL64:
	popq	%r12
	.cfi_restore 12
	.cfi_def_cfa_offset 8
	ret
.LVL65:
	.p2align 4,,10
.L49:
	.cfi_restore_state
	.loc 2 139 0
	leaq	40(%rdi), %r12
	.loc 2 135 0
	movl	$24, %ecx
	call	_Znwm
.LVL66:
	.loc 2 139 0
	movq	%r12, %rcx
	movq	$0, (%rax)
	movl	$0, 8(%rax)
	movq	$0, 16(%rax)
	.loc 2 135 0
	movq	%rax, %rbx
.LVL67:
	.loc 2 139 0
	call	pthread_mutex_lock
.LVL68:
.LBB70:
.LBB71:
	.loc 1 64 0
	movq	24(%rdi), %rcx
	movq	%rbx, %rdx
	call	_ZN11ISimpleList7AddHeadEPv
.LVL69:
.LBE71:
.LBE70:
	.loc 2 141 0
	movq	%r12, %rcx
	call	pthread_mutex_unlock
.LVL70:
	.loc 2 143 0
	movq	32(%rdi), %rcx
	movq	%rbx, %rdx
	call	pthread_setspecific
.LVL71:
	jmp	.L46
	.p2align 4,,10
.L50:
	.loc 2 148 0
	movl	16(%rdi), %edi
.LVL72:
	movq	%rdi, %r12
	salq	$3, %rdi
	movq	%rdi, %rcx
	call	malloc
.LVL73:
	.loc 2 149 0
	movq	%rdi, %r8
	movq	%rax, %rcx
	.loc 2 148 0
	movq	%rax, 16(%rbx)
	.loc 2 149 0
	xorl	%edx, %edx
	call	memset
.LVL74:
	.loc 2 150 0
	movl	%r12d, 8(%rbx)
	movq	16(%rbx), %rcx
	jmp	.L48
	.cfi_endproc
.LFE5362:
	.seh_endproc
	.align 2
	.p2align 4,,15
	.globl	_ZN15CThreadSlotData8GetValueEj
	.def	_ZN15CThreadSlotData8GetValueEj;	.scl	2;	.type	32;	.endef
	.seh_proc	_ZN15CThreadSlotData8GetValueEj
_ZN15CThreadSlotData8GetValueEj:
.LFB5363:
	.loc 2 162 0
	.cfi_startproc
.LVL75:
	pushq	%rbx
	.seh_pushreg	%rbx
	.cfi_def_cfa_offset 16
	.cfi_offset 3, -16
	subq	$32, %rsp
	.seh_stackalloc	32
	.cfi_def_cfa_offset 48
	.seh_endprologue
	.loc 2 163 0
	movq	32(%rcx), %rcx
.LVL76:
	.loc 2 162 0
	movl	%edx, %ebx
	.loc 2 163 0
	call	pthread_getspecific
.LVL77:
	.loc 2 165 0
	testq	%rax, %rax
	je	.L54
	.loc 2 165 0 is_stmt 0 discriminator 1
	cmpl	%ebx, 8(%rax)
	jbe	.L54
	.loc 2 168 0 is_stmt 1
	movq	16(%rax), %rax
.LVL78:
	movq	(%rax,%rbx,8), %rax
	.loc 2 169 0
	addq	$32, %rsp
	.cfi_remember_state
	.cfi_def_cfa_offset 16
	popq	%rbx
	.cfi_restore 3
	.cfi_def_cfa_offset 8
.LVL79:
	ret
.LVL80:
	.p2align 4,,10
.L54:
	.cfi_restore_state
	.loc 2 166 0
	xorl	%eax, %eax
.LVL81:
	.loc 2 169 0
	addq	$32, %rsp
	.cfi_def_cfa_offset 16
	popq	%rbx
	.cfi_restore 3
	.cfi_def_cfa_offset 8
	ret
	.cfi_endproc
.LFE5363:
	.seh_endproc
	.align 2
	.p2align 4,,15
	.globl	_ZN15CThreadSlotData12DeleteValuesEP13TagThreadData
	.def	_ZN15CThreadSlotData12DeleteValuesEP13TagThreadData;	.scl	2;	.type	32;	.endef
	.seh_proc	_ZN15CThreadSlotData12DeleteValuesEP13TagThreadData
_ZN15CThreadSlotData12DeleteValuesEP13TagThreadData:
.LFB5365:
	.loc 2 190 0
	.cfi_startproc
.LVL82:
	pushq	%rbp
	.seh_pushreg	%rbp
	.cfi_def_cfa_offset 16
	.cfi_offset 6, -16
	pushq	%rdi
	.seh_pushreg	%rdi
	.cfi_def_cfa_offset 24
	.cfi_offset 5, -24
	pushq	%rsi
	.seh_pushreg	%rsi
	.cfi_def_cfa_offset 32
	.cfi_offset 4, -32
	pushq	%rbx
	.seh_pushreg	%rbx
	.cfi_def_cfa_offset 40
	.cfi_offset 3, -40
	subq	$40, %rsp
	.seh_stackalloc	40
	.cfi_def_cfa_offset 80
	.seh_endprologue
	.loc 2 191 0
	testq	%rdx, %rdx
	.loc 2 190 0
	movq	%rcx, %rbp
	movq	%rdx, %rdi
	.loc 2 191 0
	je	.L55
	.loc 2 194 0
	leaq	40(%rcx), %rbx
.LBB79:
.LBB80:
.LBB81:
	.loc 2 198 0
	movl	$1, %esi
.LBE81:
.LBE80:
.LBE79:
	.loc 2 194 0
	movq	%rbx, %rcx
.LVL83:
	call	pthread_mutex_lock
.LVL84:
.LBB85:
.LBB86:
	.loc 1 69 0
	movq	24(%rbp), %rcx
	movq	%rdi, %rdx
	call	_ZN11ISimpleList6RemoveEPv
.LVL85:
.LBE86:
.LBE85:
	.loc 2 196 0
	movq	%rbx, %rcx
	call	pthread_mutex_unlock
.LVL86:
.LBB87:
.LBB83:
.LBB82:
	.loc 2 198 0
	cmpl	$1, 8(%rdi)
	jbe	.L59
.LVL87:
	.p2align 4,,10
.L63:
	.loc 2 200 0
	movl	%esi, %ebx
	salq	$3, %rbx
	movq	%rbx, %rax
	addq	16(%rdi), %rax
	movq	(%rax), %rcx
	testq	%rcx, %rcx
	je	.L58
	movq	(%rcx), %rax
	call	*8(%rax)
.LVL88:
	movq	%rbx, %rax
	addq	16(%rdi), %rax
.L58:
	.loc 2 198 0
	addl	$1, %esi
.LVL89:
	cmpl	%esi, 8(%rdi)
	.loc 2 201 0
	movq	$0, (%rax)
	.loc 2 198 0
	ja	.L63
.LVL90:
.L59:
.LBE82:
	.loc 2 203 0
	movq	16(%rdi), %rcx
	call	free
.LVL91:
	.loc 2 204 0
	movq	%rdi, %rcx
	call	_ZdlPv
.LVL92:
	.loc 2 206 0
	movq	32(%rbp), %rcx
	xorl	%edx, %edx
.LBE83:
.LBE87:
	.loc 2 207 0
	addq	$40, %rsp
	.cfi_remember_state
	.cfi_def_cfa_offset 40
	popq	%rbx
	.cfi_restore 3
	.cfi_def_cfa_offset 32
	popq	%rsi
	.cfi_restore 4
	.cfi_def_cfa_offset 24
	popq	%rdi
	.cfi_restore 5
	.cfi_def_cfa_offset 16
.LVL93:
	popq	%rbp
	.cfi_restore 6
	.cfi_def_cfa_offset 8
.LVL94:
.LBB88:
.LBB84:
	.loc 2 206 0
	jmp	pthread_setspecific
.LVL95:
	.p2align 4,,10
.L55:
	.cfi_restore_state
.LBE84:
.LBE88:
	.loc 2 207 0
	addq	$40, %rsp
	.cfi_def_cfa_offset 40
	popq	%rbx
	.cfi_restore 3
	.cfi_def_cfa_offset 32
	popq	%rsi
	.cfi_restore 4
	.cfi_def_cfa_offset 24
	popq	%rdi
	.cfi_restore 5
	.cfi_def_cfa_offset 16
	popq	%rbp
	.cfi_restore 6
	.cfi_def_cfa_offset 8
	ret
	.cfi_endproc
.LFE5365:
	.seh_endproc
	.align 2
	.p2align 4,,15
	.globl	_ZN15CThreadSlotData7DestoryEv
	.def	_ZN15CThreadSlotData7DestoryEv;	.scl	2;	.type	32;	.endef
	.seh_proc	_ZN15CThreadSlotData7DestoryEv
_ZN15CThreadSlotData7DestoryEv:
.LFB5359:
	.loc 2 57 0
	.cfi_startproc
.LVL96:
	pushq	%rsi
	.seh_pushreg	%rsi
	.cfi_def_cfa_offset 16
	.cfi_offset 4, -16
	pushq	%rbx
	.seh_pushreg	%rbx
	.cfi_def_cfa_offset 24
	.cfi_offset 3, -24
	subq	$40, %rsp
	.seh_stackalloc	40
	.cfi_def_cfa_offset 64
	.seh_endprologue
.LVL97:
	.loc 2 57 0
	movq	%rcx, %rsi
.LBB89:
.LBB90:
	.loc 1 54 0
	movq	24(%rcx), %rcx
.LVL98:
	call	_ZNK11ISimpleList7GetHeadEv
.LVL99:
.LBE90:
.LBE89:
	.loc 2 59 0
	testq	%rax, %rax
.LBB92:
.LBB91:
	.loc 1 54 0
	movq	%rax, %rdx
.LVL100:
.LBE91:
.LBE92:
	.loc 2 59 0
	je	.L69
.LVL101:
	.p2align 4,,10
.L73:
.LBB93:
	.loc 2 61 0
	movq	(%rdx), %rbx
.LVL102:
	.loc 2 62 0
	movq	%rsi, %rcx
	call	_ZN15CThreadSlotData12DeleteValuesEP13TagThreadData
.LVL103:
.LBE93:
	.loc 2 59 0
	testq	%rbx, %rbx
	movq	%rbx, %rdx
	jne	.L73
.LVL104:
.L69:
	.loc 2 65 0
	movq	24(%rsi), %rcx
	testq	%rcx, %rcx
	je	.L68
	.loc 2 65 0 is_stmt 0 discriminator 1
	movq	(%rcx), %rax
	call	*8(%rax)
.LVL105:
.L68:
	.loc 2 67 0 is_stmt 1
	movq	32(%rsi), %rcx
	call	pthread_key_delete
.LVL106:
	.loc 2 69 0
	leaq	40(%rsi), %rcx
	.loc 2 70 0
	addq	$40, %rsp
	.cfi_def_cfa_offset 24
	popq	%rbx
	.cfi_restore 3
	.cfi_def_cfa_offset 16
	popq	%rsi
	.cfi_restore 4
	.cfi_def_cfa_offset 8
.LVL107:
	.loc 2 69 0
	jmp	pthread_mutex_destroy
.LVL108:
	.cfi_endproc
.LFE5359:
	.seh_endproc
	.align 2
	.p2align 4,,15
	.globl	_ZN15CThreadSlotDataD0Ev
	.def	_ZN15CThreadSlotDataD0Ev;	.scl	2;	.type	32;	.endef
	.seh_proc	_ZN15CThreadSlotDataD0Ev
_ZN15CThreadSlotDataD0Ev:
.LFB5352:
	.loc 2 19 0
	.cfi_startproc
	.cfi_personality 0x9b,.LDFCM0
	.cfi_lsda 0x1c,.LLSDA5352
.LVL109:
	.seh_endprologue
.LVL110:
.LBB94:
.LBB95:
	.loc 2 19 0
	leaq	16+_ZTV15CThreadSlotData(%rip), %rax
	movq	%rax, (%rcx)
.LBE95:
.LBE94:
	.loc 2 22 0
.LBB97:
.LBB96:
	.loc 2 21 0
	jmp	_ZN15CThreadSlotData7DestoryEv
.LVL111:
.LBE96:
.LBE97:
	.cfi_endproc
.LFE5352:
	.seh_handler	__gxx_personality_seh0, @unwind, @except
	.seh_handlerdata
.LLSDA5352:
	.byte	0xff
	.byte	0xff
	.byte	0x1
	.uleb128 .LLSDACSE5352-.LLSDACSB5352
.LLSDACSB5352:
.LLSDACSE5352:
	.text
	.seh_endproc
	.globl	_ZN15CThreadSlotDataD1Ev
	.def	_ZN15CThreadSlotDataD1Ev;	.scl	2;	.type	32;	.endef
	.set	_ZN15CThreadSlotDataD1Ev,_ZN15CThreadSlotDataD0Ev
	.globl	_ZN15CThreadSlotDataD2Ev
	.def	_ZN15CThreadSlotDataD2Ev;	.scl	2;	.type	32;	.endef
	.set	_ZN15CThreadSlotDataD2Ev,_ZN15CThreadSlotDataD0Ev
	.align 2
	.p2align 4,,15
	.globl	_ZN15CThreadSlotData12DeleteValuesEb
	.def	_ZN15CThreadSlotData12DeleteValuesEb;	.scl	2;	.type	32;	.endef
	.seh_proc	_ZN15CThreadSlotData12DeleteValuesEb
_ZN15CThreadSlotData12DeleteValuesEb:
.LFB5364:
	.loc 2 171 0
	.cfi_startproc
.LVL112:
	pushq	%rsi
	.seh_pushreg	%rsi
	.cfi_def_cfa_offset 16
	.cfi_offset 4, -16
	pushq	%rbx
	.seh_pushreg	%rbx
	.cfi_def_cfa_offset 24
	.cfi_offset 3, -24
	subq	$40, %rsp
	.seh_stackalloc	40
	.cfi_def_cfa_offset 64
	.seh_endprologue
.LBB98:
	.loc 2 172 0
	testb	%dl, %dl
.LBE98:
	.loc 2 171 0
	movq	%rcx, %rsi
.LBB107:
	.loc 2 172 0
	je	.L77
.LVL113:
.LBB99:
.LBB100:
.LBB101:
	.loc 1 54 0
	movq	24(%rcx), %rcx
.LVL114:
	call	_ZNK11ISimpleList7GetHeadEv
.LVL115:
.LBE101:
.LBE100:
	.loc 2 175 0
	testq	%rax, %rax
.LBB103:
.LBB102:
	.loc 1 54 0
	movq	%rax, %rdx
.LVL116:
.LBE102:
.LBE103:
	.loc 2 175 0
	je	.L76
.LVL117:
	.p2align 4,,10
.L86:
.LBB104:
	.loc 2 177 0
	movq	(%rdx), %rbx
.LVL118:
	.loc 2 178 0
	movq	%rsi, %rcx
	call	_ZN15CThreadSlotData12DeleteValuesEP13TagThreadData
.LVL119:
.LBE104:
	.loc 2 175 0
	testq	%rbx, %rbx
	movq	%rbx, %rdx
	jne	.L86
.LVL120:
.L76:
.LBE99:
.LBE107:
	.loc 2 188 0
	addq	$40, %rsp
	.cfi_remember_state
	.cfi_def_cfa_offset 24
	popq	%rbx
	.cfi_restore 3
	.cfi_def_cfa_offset 16
	popq	%rsi
	.cfi_restore 4
	.cfi_def_cfa_offset 8
.LVL121:
	ret
.LVL122:
	.p2align 4,,10
.L77:
	.cfi_restore_state
.LBB108:
.LBB105:
	.loc 2 184 0
	movq	32(%rcx), %rcx
.LVL123:
	call	pthread_getspecific
.LVL124:
	.loc 2 185 0
	testq	%rax, %rax
	je	.L76
	.loc 2 186 0
	movq	%rax, %rdx
	movq	%rsi, %rcx
.LBE105:
.LBE108:
	.loc 2 188 0
	addq	$40, %rsp
	.cfi_def_cfa_offset 24
	popq	%rbx
	.cfi_restore 3
	.cfi_def_cfa_offset 16
	popq	%rsi
	.cfi_restore 4
	.cfi_def_cfa_offset 8
.LVL125:
.LBB109:
.LBB106:
	.loc 2 186 0
	jmp	_ZN15CThreadSlotData12DeleteValuesEP13TagThreadData
.LVL126:
.LBE106:
.LBE109:
	.cfi_endproc
.LFE5364:
	.seh_endproc
	.globl	_ZTS11ISimpleList
	.section	.rdata$_ZTS11ISimpleList,"dr"
	.linkonce same_size
	.align 8
_ZTS11ISimpleList:
	.ascii "11ISimpleList\0"
	.globl	_ZTI11ISimpleList
	.section	.rdata$_ZTI11ISimpleList,"dr"
	.linkonce same_size
	.align 8
_ZTI11ISimpleList:
	.quad	_ZTVN10__cxxabiv117__class_type_infoE+16
	.quad	_ZTS11ISimpleList
	.globl	_ZTS15CThreadSlotData
	.section	.rdata$_ZTS15CThreadSlotData,"dr"
	.linkonce same_size
	.align 16
_ZTS15CThreadSlotData:
	.ascii "15CThreadSlotData\0"
	.globl	_ZTI15CThreadSlotData
	.section	.rdata$_ZTI15CThreadSlotData,"dr"
	.linkonce same_size
	.align 8
_ZTI15CThreadSlotData:
	.quad	_ZTVN10__cxxabiv117__class_type_infoE+16
	.quad	_ZTS15CThreadSlotData
	.globl	_ZTS11CSimpleListIP13TagThreadDataE
	.section	.rdata$_ZTS11CSimpleListIP13TagThreadDataE,"dr"
	.linkonce same_size
	.align 32
_ZTS11CSimpleListIP13TagThreadDataE:
	.ascii "11CSimpleListIP13TagThreadDataE\0"
	.globl	_ZTI11CSimpleListIP13TagThreadDataE
	.section	.rdata$_ZTI11CSimpleListIP13TagThreadDataE,"dr"
	.linkonce same_size
	.align 8
_ZTI11CSimpleListIP13TagThreadDataE:
	.quad	_ZTVN10__cxxabiv120__si_class_type_infoE+16
	.quad	_ZTS11CSimpleListIP13TagThreadDataE
	.quad	_ZTI11ISimpleList
	.globl	_ZTV15CThreadSlotData
	.section	.rdata$_ZTV15CThreadSlotData,"dr"
	.linkonce same_size
	.align 8
_ZTV15CThreadSlotData:
	.quad	0
	.quad	_ZTI15CThreadSlotData
	.quad	_ZN15CThreadSlotDataD1Ev
	.quad	_ZN15CThreadSlotDataD0Ev
	.globl	_ZTV11CSimpleListIP13TagThreadDataE
	.section	.rdata$_ZTV11CSimpleListIP13TagThreadDataE,"dr"
	.linkonce same_size
	.align 8
_ZTV11CSimpleListIP13TagThreadDataE:
	.quad	0
	.quad	_ZTI11CSimpleListIP13TagThreadDataE
	.quad	_ZN11CSimpleListIP13TagThreadDataED1Ev
	.quad	_ZN11CSimpleListIP13TagThreadDataED0Ev
	.text
.Letext0:
	.file 3 "/usr/lib/gcc/x86_64-pc-cygwin/5.3.0/include/stddef.h"
	.file 4 "/usr/include/machine/types.h"
	.file 5 "CThreadSlotData.h"
	.file 6 "ISimpleList.h"
	.file 7 "/usr/include/pthread.h"
	.file 8 "/usr/include/stdlib.h"
	.data
	.align 8
.LDFCM0:
	.quad	__gxx_personality_seh0
	.ident	"GCC: (GNU) 5.3.0"
	.def	_ZN11ISimpleListD2Ev;	.scl	2;	.type	32;	.endef
	.def	__real__ZdlPv;	.scl	2;	.type	32;	.endef
	.def	_ZdlPv;	.scl	2;	.type	32;	.endef
	.def	__real__Znwm;	.scl	2;	.type	32;	.endef
	.def	_Znwm;	.scl	2;	.type	32;	.endef
	.def	_ZN11ISimpleListC2Ej;	.scl	2;	.type	32;	.endef
	.def	pthread_key_create;	.scl	2;	.type	32;	.endef
	.def	pthread_mutex_init;	.scl	2;	.type	32;	.endef
	.def	_Unwind_Resume;	.scl	2;	.type	32;	.endef
	.def	pthread_mutex_lock;	.scl	2;	.type	32;	.endef
	.def	pthread_mutex_unlock;	.scl	2;	.type	32;	.endef
	.def	realloc;	.scl	2;	.type	32;	.endef
	.def	memset;	.scl	2;	.type	32;	.endef
	.def	malloc;	.scl	2;	.type	32;	.endef
	.def	_ZNK11ISimpleList7GetHeadEv;	.scl	2;	.type	32;	.endef
	.def	pthread_getspecific;	.scl	2;	.type	32;	.endef
	.def	_ZN11ISimpleList7AddHeadEPv;	.scl	2;	.type	32;	.endef
	.def	pthread_setspecific;	.scl	2;	.type	32;	.endef
	.def	_ZN11ISimpleList6RemoveEPv;	.scl	2;	.type	32;	.endef
	.def	free;	.scl	2;	.type	32;	.endef
	.def	pthread_key_delete;	.scl	2;	.type	32;	.endef
	.def	pthread_mutex_destroy;	.scl	2;	.type	32;	.endef
