	.file	"IThreadLocal.cpp"
	.text
.Ltext0:
	.cfi_sections	.debug_frame
	.align 2
	.p2align 4,,15
	.globl	_ZN12IThreadLocalD2Ev
	.def	_ZN12IThreadLocalD2Ev;	.scl	2;	.type	32;	.endef
	.seh_proc	_ZN12IThreadLocalD2Ev
_ZN12IThreadLocalD2Ev:
.LFB5350:
	.file 1 "IThreadLocal.cpp"
	.loc 1 12 0
	.cfi_startproc
	.cfi_personality 0x9b,.LDFCM0
	.cfi_lsda 0x1c,.LLSDA5350
.LVL0:
	.seh_endprologue
.LBB5:
	.loc 1 12 0
	leaq	16+_ZTV12IThreadLocal(%rip), %rax
	.loc 1 14 0
	movl	8(%rcx), %edx
	.loc 1 12 0
	movq	%rax, (%rcx)
	.loc 1 14 0
	movq	_ZN12IThreadLocal17m_pThreadSlotDataE(%rip), %rcx
.LVL1:
.LBE5:
	.loc 1 16 0
.LBB6:
	.loc 1 14 0
	jmp	_ZN15CThreadSlotData8FreeSlotEj
.LVL2:
.LBE6:
	.cfi_endproc
.LFE5350:
	.def	__gxx_personality_seh0;	.scl	2;	.type	32;	.endef
	.seh_handler	__gxx_personality_seh0, @unwind, @except
	.seh_handlerdata
.LLSDA5350:
	.byte	0xff
	.byte	0xff
	.byte	0x1
	.uleb128 .LLSDACSE5350-.LLSDACSB5350
.LLSDACSB5350:
.LLSDACSE5350:
	.text
	.seh_endproc
	.globl	_ZN12IThreadLocalD1Ev
	.def	_ZN12IThreadLocalD1Ev;	.scl	2;	.type	32;	.endef
	.set	_ZN12IThreadLocalD1Ev,_ZN12IThreadLocalD2Ev
	.align 2
	.p2align 4,,15
	.globl	_ZN12IThreadLocalD0Ev
	.def	_ZN12IThreadLocalD0Ev;	.scl	2;	.type	32;	.endef
	.seh_proc	_ZN12IThreadLocalD0Ev
_ZN12IThreadLocalD0Ev:
.LFB5352:
	.loc 1 12 0
	.cfi_startproc
	.cfi_personality 0x9b,.LDFCM0
	.cfi_lsda 0x1c,.LLSDA5352
.LVL3:
	pushq	%rbx
	.seh_pushreg	%rbx
	.cfi_def_cfa_offset 16
	.cfi_offset 3, -16
	subq	$32, %rsp
	.seh_stackalloc	32
	.cfi_def_cfa_offset 48
	.seh_endprologue
.LVL4:
.LBB7:
.LBB8:
	.loc 1 12 0
	leaq	16+_ZTV12IThreadLocal(%rip), %rax
	.loc 1 14 0
	movl	8(%rcx), %edx
.LBE8:
.LBE7:
	.loc 1 12 0
	movq	%rcx, %rbx
.LBB10:
.LBB9:
	movq	%rax, (%rcx)
	.loc 1 14 0
	movq	_ZN12IThreadLocal17m_pThreadSlotDataE(%rip), %rcx
.LVL5:
	call	_ZN15CThreadSlotData8FreeSlotEj
.LVL6:
.LBE9:
.LBE10:
	.loc 1 16 0
	movq	%rbx, %rcx
	addq	$32, %rsp
	.cfi_def_cfa_offset 16
	popq	%rbx
	.cfi_restore 3
	.cfi_def_cfa_offset 8
.LVL7:
	jmp	_ZdlPv
.LVL8:
	.cfi_endproc
.LFE5352:
	.seh_handler	__gxx_personality_seh0, @unwind, @except
	.seh_handlerdata
.LLSDA5352:
	.byte	0xff
	.byte	0xff
	.byte	0x1
	.uleb128 .LLSDACSE5352-.LLSDACSB5352
.LLSDACSB5352:
.LLSDACSE5352:
	.text
	.seh_endproc
	.align 2
	.p2align 4,,15
	.globl	_ZN12IThreadLocalC2Ev
	.def	_ZN12IThreadLocalC2Ev;	.scl	2;	.type	32;	.endef
	.seh_proc	_ZN12IThreadLocalC2Ev
_ZN12IThreadLocalC2Ev:
.LFB5347:
	.loc 1 7 0
	.cfi_startproc
.LVL9:
	.seh_endprologue
.LBB11:
	.loc 1 7 0
	leaq	16+_ZTV12IThreadLocal(%rip), %rax
	.loc 1 9 0
	leaq	8(%rcx), %rdx
	.loc 1 7 0
	movq	%rax, (%rcx)
	.loc 1 9 0
	movq	_ZN12IThreadLocal17m_pThreadSlotDataE(%rip), %rcx
.LVL10:
.LBE11:
	.loc 1 10 0
.LBB12:
	.loc 1 9 0
	jmp	_ZN15CThreadSlotData9AllocSlotEPj
.LVL11:
.LBE12:
	.cfi_endproc
.LFE5347:
	.seh_endproc
	.globl	_ZN12IThreadLocalC1Ev
	.def	_ZN12IThreadLocalC1Ev;	.scl	2;	.type	32;	.endef
	.set	_ZN12IThreadLocalC1Ev,_ZN12IThreadLocalC2Ev
	.align 2
	.p2align 4,,15
	.globl	_ZN12IThreadLocal7GetDataEPFPvvE
	.def	_ZN12IThreadLocal7GetDataEPFPvvE;	.scl	2;	.type	32;	.endef
	.seh_proc	_ZN12IThreadLocal7GetDataEPFPvvE
_ZN12IThreadLocal7GetDataEPFPvvE:
.LFB5353:
	.loc 1 22 0
	.cfi_startproc
.LVL12:
	pushq	%rsi
	.seh_pushreg	%rsi
	.cfi_def_cfa_offset 16
	.cfi_offset 4, -16
	pushq	%rbx
	.seh_pushreg	%rbx
	.cfi_def_cfa_offset 24
	.cfi_offset 3, -24
	subq	$56, %rsp
	.seh_stackalloc	56
	.cfi_def_cfa_offset 80
	.seh_endprologue
	.loc 1 22 0
	movq	%rcx, %rbx
	movq	%rdx, %rsi
	.loc 1 23 0
	movl	8(%rcx), %edx
.LVL13:
	movq	_ZN12IThreadLocal17m_pThreadSlotDataE(%rip), %rcx
.LVL14:
	call	_ZN15CThreadSlotData8GetValueEj
.LVL15:
	.loc 1 24 0
	testq	%rax, %rax
	je	.L7
	.loc 1 30 0
	addq	$56, %rsp
	.cfi_remember_state
	.cfi_def_cfa_offset 24
	popq	%rbx
	.cfi_restore 3
	.cfi_def_cfa_offset 16
.LVL16:
	popq	%rsi
	.cfi_restore 4
	.cfi_def_cfa_offset 8
.LVL17:
	ret
.LVL18:
	.p2align 4,,10
.L7:
	.cfi_restore_state
	.loc 1 26 0
	call	*%rsi
.LVL19:
	.loc 1 27 0
	movl	8(%rbx), %edx
	movq	_ZN12IThreadLocal17m_pThreadSlotDataE(%rip), %rcx
	movq	%rax, %r8
	movq	%rax, 40(%rsp)
	call	_ZN15CThreadSlotData8SetValueEjPv
.LVL20:
	movq	40(%rsp), %rax
.LVL21:
	.loc 1 30 0
	addq	$56, %rsp
	.cfi_def_cfa_offset 24
	popq	%rbx
	.cfi_restore 3
	.cfi_def_cfa_offset 16
.LVL22:
	popq	%rsi
	.cfi_restore 4
	.cfi_def_cfa_offset 8
.LVL23:
	ret
	.cfi_endproc
.LFE5353:
	.seh_endproc
	.section	.text.startup,"x"
	.p2align 4,,15
	.def	_GLOBAL__sub_I__ZN12IThreadLocal17m_pThreadSlotDataE;	.scl	3;	.type	32;	.endef
	.seh_proc	_GLOBAL__sub_I__ZN12IThreadLocal17m_pThreadSlotDataE
_GLOBAL__sub_I__ZN12IThreadLocal17m_pThreadSlotDataE:
.LFB5355:
	.loc 1 30 0
	.cfi_startproc
	.cfi_personality 0x9b,.LDFCM0
	.cfi_lsda 0x1c,.LLSDA5355
	pushq	%rsi
	.seh_pushreg	%rsi
	.cfi_def_cfa_offset 16
	.cfi_offset 4, -16
	pushq	%rbx
	.seh_pushreg	%rbx
	.cfi_def_cfa_offset 24
	.cfi_offset 3, -24
	subq	$40, %rsp
	.seh_stackalloc	40
	.cfi_def_cfa_offset 64
	.seh_endprologue
.LVL24:
.LBB15:
.LBB16:
	.loc 1 5 0
	leaq	_ZL18threadSlotDataBuff(%rip), %rdx
	movl	$48, %ecx
.LEHB0:
	call	_ZN15CThreadSlotDatanwEmPv
.LVL25:
.LEHE0:
	movq	%rax, %rcx
	movq	%rax, %rbx
.LEHB1:
	call	_ZN15CThreadSlotDataC1Ev
.LVL26:
.LEHE1:
	movq	%rbx, _ZN12IThreadLocal17m_pThreadSlotDataE(%rip)
.LVL27:
.LBE16:
.LBE15:
	.loc 1 30 0
	addq	$40, %rsp
	.cfi_remember_state
	.cfi_def_cfa_offset 24
	popq	%rbx
	.cfi_restore 3
	.cfi_def_cfa_offset 16
	popq	%rsi
	.cfi_restore 4
	.cfi_def_cfa_offset 8
	ret
.LVL28:
.L10:
	.cfi_restore_state
.LBB18:
.LBB17:
	.loc 1 5 0
	leaq	_ZL18threadSlotDataBuff(%rip), %rdx
	movq	%rax, %rsi
	movq	%rbx, %rcx
	call	_ZN15CThreadSlotDatadlEPvS0_
.LVL29:
	movq	%rsi, %rcx
.LEHB2:
	call	_Unwind_Resume
	nop
.LVL30:
.LEHE2:
.LBE17:
.LBE18:
	.cfi_endproc
.LFE5355:
	.seh_handler	__gxx_personality_seh0, @unwind, @except
	.seh_handlerdata
.LLSDA5355:
	.byte	0xff
	.byte	0xff
	.byte	0x1
	.uleb128 .LLSDACSE5355-.LLSDACSB5355
.LLSDACSB5355:
	.uleb128 .LEHB0-.LFB5355
	.uleb128 .LEHE0-.LEHB0
	.uleb128 0
	.uleb128 0
	.uleb128 .LEHB1-.LFB5355
	.uleb128 .LEHE1-.LEHB1
	.uleb128 .L10-.LFB5355
	.uleb128 0
	.uleb128 .LEHB2-.LFB5355
	.uleb128 .LEHE2-.LEHB2
	.uleb128 0
	.uleb128 0
.LLSDACSE5355:
	.section	.text.startup,"x"
	.seh_endproc
	.section	.ctors,"w"
	.align 8
	.quad	_GLOBAL__sub_I__ZN12IThreadLocal17m_pThreadSlotDataE
	.globl	_ZTS12IThreadLocal
	.section	.rdata$_ZTS12IThreadLocal,"dr"
	.linkonce same_size
	.align 8
_ZTS12IThreadLocal:
	.ascii "12IThreadLocal\0"
	.globl	_ZTI12IThreadLocal
	.section	.rdata$_ZTI12IThreadLocal,"dr"
	.linkonce same_size
	.align 8
_ZTI12IThreadLocal:
	.quad	_ZTVN10__cxxabiv117__class_type_infoE+16
	.quad	_ZTS12IThreadLocal
	.globl	_ZTV12IThreadLocal
	.section	.rdata$_ZTV12IThreadLocal,"dr"
	.linkonce same_size
	.align 8
_ZTV12IThreadLocal:
	.quad	0
	.quad	_ZTI12IThreadLocal
	.quad	_ZN12IThreadLocalD1Ev
	.quad	_ZN12IThreadLocalD0Ev
	.globl	_ZN12IThreadLocal17m_pThreadSlotDataE
	.bss
	.align 8
_ZN12IThreadLocal17m_pThreadSlotDataE:
	.space 8
.lcomm _ZL18threadSlotDataBuff,48,32
	.text
.Letext0:
	.file 2 "CThreadSlotData.h"
	.file 3 "IThreadLocal.h"
	.data
	.align 8
.LDFCM0:
	.quad	__gxx_personality_seh0
	.ident	"GCC: (GNU) 5.3.0"
	.def	_ZN15CThreadSlotData8FreeSlotEj;	.scl	2;	.type	32;	.endef
	.def	__real__ZdlPv;	.scl	2;	.type	32;	.endef
	.def	_ZdlPv;	.scl	2;	.type	32;	.endef
	.def	_ZN15CThreadSlotData9AllocSlotEPj;	.scl	2;	.type	32;	.endef
	.def	_ZN15CThreadSlotData8GetValueEj;	.scl	2;	.type	32;	.endef
	.def	_ZN15CThreadSlotData8SetValueEjPv;	.scl	2;	.type	32;	.endef
	.def	_ZN15CThreadSlotDatanwEmPv;	.scl	2;	.type	32;	.endef
	.def	_ZN15CThreadSlotDataC1Ev;	.scl	2;	.type	32;	.endef
	.def	_ZN15CThreadSlotDatadlEPvS0_;	.scl	2;	.type	32;	.endef
	.def	_Unwind_Resume;	.scl	2;	.type	32;	.endef
