	.file	"main.cpp"
	.text
.Ltext0:
	.cfi_sections	.debug_frame
	.section .rdata,"dr"
.LC0:
	.ascii "OrderID: %d, Thread ID: %-5d\12\0"
	.text
	.p2align 4,,15
	.globl	_Z10ThreadFuncPv
	.def	_Z10ThreadFuncPv;	.scl	2;	.type	32;	.endef
	.seh_proc	_Z10ThreadFuncPv
_Z10ThreadFuncPv:
.LFB5355:
	.file 1 "main.cpp"
	.loc 1 19 0
	.cfi_startproc
.LVL0:
	pushq	%rbx
	.seh_pushreg	%rbx
	.cfi_def_cfa_offset 16
	.cfi_offset 3, -16
	subq	$32, %rsp
	.seh_stackalloc	32
	.cfi_def_cfa_offset 48
	.seh_endprologue
.LVL1:
.LBB28:
.LBB29:
.LBB30:
	.file 2 "CThreadLocal.h"
	.loc 2 53 0
	leaq	_ZN12CThreadLocalI15TagMyThreadDataE12CreateObjectEv(%rip), %rdx
.LBE30:
.LBE29:
.LBE28:
	.loc 1 19 0
	movq	%rcx, %rbx
.LBB33:
.LBB32:
.LBB31:
	.loc 2 53 0
	leaq	g_threadLocal(%rip), %rcx
.LVL2:
	call	_ZN12IThreadLocal7GetDataEPFPvvE
.LVL3:
.LBE31:
.LBE32:
.LBE33:
	.loc 1 20 0
	movl	(%rbx), %edx
	movl	%edx, 8(%rax)
	.loc 1 21 0
	addl	$1, (%rbx)
	.loc 1 22 0
	call	*__imp_GetCurrentThreadId(%rip)
.LVL4:
.LBB34:
.LBB35:
.LBB36:
	.loc 2 53 0
	leaq	_ZN12CThreadLocalI15TagMyThreadDataE12CreateObjectEv(%rip), %rdx
	leaq	g_threadLocal(%rip), %rcx
.LBE36:
.LBE35:
.LBE34:
	.loc 1 22 0
	movl	%eax, %ebx
.LVL5:
.LBB39:
.LBB38:
.LBB37:
	.loc 2 53 0
	call	_ZN12IThreadLocal7GetDataEPFPvvE
.LVL6:
.LBE37:
.LBE38:
.LBE39:
	.loc 1 22 0
	movl	8(%rax), %edx
	leaq	.LC0(%rip), %rcx
	movl	%ebx, %r8d
	call	printf
.LVL7:
	.loc 1 23 0
	leaq	g_Mutex(%rip), %rcx
	call	pthread_mutex_unlock
.LVL8:
	.loc 1 25 0
	xorl	%eax, %eax
	addq	$32, %rsp
	.cfi_def_cfa_offset 16
	popq	%rbx
	.cfi_restore 3
	.cfi_def_cfa_offset 8
	ret
	.cfi_endproc
.LFE5355:
	.seh_endproc
	.section	.text$_ZN12CThreadLocalI15TagMyThreadDataE12CreateObjectEv,"x"
	.linkonce discard
	.align 2
	.p2align 4,,15
	.globl	_ZN12CThreadLocalI15TagMyThreadDataE12CreateObjectEv
	.def	_ZN12CThreadLocalI15TagMyThreadDataE12CreateObjectEv;	.scl	2;	.type	32;	.endef
	.seh_proc	_ZN12CThreadLocalI15TagMyThreadDataE12CreateObjectEv
_ZN12CThreadLocalI15TagMyThreadDataE12CreateObjectEv:
.LFB5359:
	.loc 2 46 0
	.cfi_startproc
	.cfi_personality 0x9b,.LDFCM0
	.cfi_lsda 0x1c,.LLSDA5359
	pushq	%rsi
	.seh_pushreg	%rsi
	.cfi_def_cfa_offset 16
	.cfi_offset 4, -16
	pushq	%rbx
	.seh_pushreg	%rbx
	.cfi_def_cfa_offset 24
	.cfi_offset 3, -24
	subq	$40, %rsp
	.seh_stackalloc	40
	.cfi_def_cfa_offset 64
	.seh_endprologue
	.loc 2 48 0
	movl	$16, %ecx
.LEHB0:
	call	_ZN14INoTrackObjectnwEm
.LVL9:
.LEHE0:
.LBB40:
.LBB41:
	.loc 1 11 0
	movq	%rax, %rcx
.LBE41:
.LBE40:
	.loc 2 48 0
	movq	%rax, %rbx
.LVL10:
.LEHB1:
.LBB43:
.LBB42:
	.loc 1 11 0
	call	_ZN14INoTrackObjectC2Ev
.LVL11:
.LEHE1:
	leaq	16+_ZTV15TagMyThreadData(%rip), %rax
	movq	%rax, (%rbx)
.LVL12:
.LBE42:
.LBE43:
	.loc 2 49 0
	movq	%rbx, %rax
	addq	$40, %rsp
	.cfi_remember_state
	.cfi_def_cfa_offset 24
	popq	%rbx
	.cfi_restore 3
	.cfi_def_cfa_offset 16
	popq	%rsi
	.cfi_restore 4
	.cfi_def_cfa_offset 8
	ret
.LVL13:
.L4:
	.cfi_restore_state
	movq	%rax, %rsi
	.loc 2 48 0
	movq	%rbx, %rcx
	call	_ZN14INoTrackObjectdlEPv
.LVL14:
	movq	%rsi, %rcx
.LEHB2:
	call	_Unwind_Resume
	nop
.LVL15:
.LEHE2:
	.cfi_endproc
.LFE5359:
	.def	__gxx_personality_seh0;	.scl	2;	.type	32;	.endef
	.seh_handler	__gxx_personality_seh0, @unwind, @except
	.seh_handlerdata
.LLSDA5359:
	.byte	0xff
	.byte	0xff
	.byte	0x1
	.uleb128 .LLSDACSE5359-.LLSDACSB5359
.LLSDACSB5359:
	.uleb128 .LEHB0-.LFB5359
	.uleb128 .LEHE0-.LEHB0
	.uleb128 0
	.uleb128 0
	.uleb128 .LEHB1-.LFB5359
	.uleb128 .LEHE1-.LEHB1
	.uleb128 .L4-.LFB5359
	.uleb128 0
	.uleb128 .LEHB2-.LFB5359
	.uleb128 .LEHE2-.LEHB2
	.uleb128 0
	.uleb128 0
.LLSDACSE5359:
	.section	.text$_ZN12CThreadLocalI15TagMyThreadDataE12CreateObjectEv,"x"
	.linkonce discard
	.seh_endproc
	.section	.text$_ZN15TagMyThreadDataD1Ev,"x"
	.linkonce discard
	.align 2
	.p2align 4,,15
	.globl	_ZN15TagMyThreadDataD1Ev
	.def	_ZN15TagMyThreadDataD1Ev;	.scl	2;	.type	32;	.endef
	.seh_proc	_ZN15TagMyThreadDataD1Ev
_ZN15TagMyThreadDataD1Ev:
.LFB5369:
	.loc 1 11 0
	.cfi_startproc
.LVL16:
	.seh_endprologue
.LBB44:
	.loc 1 11 0
	leaq	16+_ZTV15TagMyThreadData(%rip), %rax
	movq	%rax, (%rcx)
.LBE44:
.LBB45:
	jmp	_ZN14INoTrackObjectD2Ev
.LVL17:
.LBE45:
	.cfi_endproc
.LFE5369:
	.seh_endproc
	.section	.text$_ZN15TagMyThreadDataD0Ev,"x"
	.linkonce discard
	.align 2
	.p2align 4,,15
	.globl	_ZN15TagMyThreadDataD0Ev
	.def	_ZN15TagMyThreadDataD0Ev;	.scl	2;	.type	32;	.endef
	.seh_proc	_ZN15TagMyThreadDataD0Ev
_ZN15TagMyThreadDataD0Ev:
.LFB5370:
	.loc 1 11 0
	.cfi_startproc
.LVL18:
	pushq	%rbx
	.seh_pushreg	%rbx
	.cfi_def_cfa_offset 16
	.cfi_offset 3, -16
	subq	$32, %rsp
	.seh_stackalloc	32
	.cfi_def_cfa_offset 48
	.seh_endprologue
.LVL19:
.LBB46:
.LBB47:
	.loc 1 11 0
	leaq	16+_ZTV15TagMyThreadData(%rip), %rax
.LBE47:
.LBE46:
	movq	%rcx, %rbx
.LBB49:
.LBB48:
	movq	%rax, (%rcx)
	call	_ZN14INoTrackObjectD2Ev
.LVL20:
.LBE48:
.LBE49:
	movq	%rbx, %rcx
	addq	$32, %rsp
	.cfi_def_cfa_offset 16
	popq	%rbx
	.cfi_restore 3
	.cfi_def_cfa_offset 8
.LVL21:
	jmp	_ZN14INoTrackObjectdlEPv
.LVL22:
	.cfi_endproc
.LFE5370:
	.seh_endproc
	.section	.text$_ZN12CThreadLocalI15TagMyThreadDataED1Ev,"x"
	.linkonce discard
	.align 2
	.p2align 4,,15
	.globl	_ZN12CThreadLocalI15TagMyThreadDataED1Ev
	.def	_ZN12CThreadLocalI15TagMyThreadDataED1Ev;	.scl	2;	.type	32;	.endef
	.seh_proc	_ZN12CThreadLocalI15TagMyThreadDataED1Ev
_ZN12CThreadLocalI15TagMyThreadDataED1Ev:
.LFB5365:
	.loc 2 7 0
	.cfi_startproc
.LVL23:
	.seh_endprologue
.LBB50:
	.loc 2 7 0
	leaq	16+_ZTV12CThreadLocalI15TagMyThreadDataE(%rip), %rax
	movq	%rax, (%rcx)
.LBE50:
.LBB51:
	jmp	_ZN12IThreadLocalD2Ev
.LVL24:
.LBE51:
	.cfi_endproc
.LFE5365:
	.seh_endproc
	.section	.text$_ZN12CThreadLocalI15TagMyThreadDataED0Ev,"x"
	.linkonce discard
	.align 2
	.p2align 4,,15
	.globl	_ZN12CThreadLocalI15TagMyThreadDataED0Ev
	.def	_ZN12CThreadLocalI15TagMyThreadDataED0Ev;	.scl	2;	.type	32;	.endef
	.seh_proc	_ZN12CThreadLocalI15TagMyThreadDataED0Ev
_ZN12CThreadLocalI15TagMyThreadDataED0Ev:
.LFB5366:
	.loc 2 7 0
	.cfi_startproc
.LVL25:
	pushq	%rbx
	.seh_pushreg	%rbx
	.cfi_def_cfa_offset 16
	.cfi_offset 3, -16
	subq	$32, %rsp
	.seh_stackalloc	32
	.cfi_def_cfa_offset 48
	.seh_endprologue
.LVL26:
.LBB52:
.LBB53:
	.loc 2 7 0
	leaq	16+_ZTV12CThreadLocalI15TagMyThreadDataE(%rip), %rax
.LBE53:
.LBE52:
	movq	%rcx, %rbx
.LBB55:
.LBB54:
	movq	%rax, (%rcx)
	call	_ZN12IThreadLocalD2Ev
.LVL27:
.LBE54:
.LBE55:
	movq	%rbx, %rcx
	addq	$32, %rsp
	.cfi_def_cfa_offset 16
	popq	%rbx
	.cfi_restore 3
	.cfi_def_cfa_offset 8
.LVL28:
	jmp	_ZdlPv
.LVL29:
	.cfi_endproc
.LFE5366:
	.seh_endproc
	.def	__main;	.scl	2;	.type	32;	.endef
	.section	.text.startup,"x"
	.p2align 4,,15
	.globl	main
	.def	main;	.scl	2;	.type	32;	.endef
	.seh_proc	main
main:
.LFB5356:
	.loc 1 28 0
	.cfi_startproc
.LVL30:
	pushq	%rdi
	.seh_pushreg	%rdi
	.cfi_def_cfa_offset 16
	.cfi_offset 5, -16
	pushq	%rsi
	.seh_pushreg	%rsi
	.cfi_def_cfa_offset 24
	.cfi_offset 4, -24
	pushq	%rbx
	.seh_pushreg	%rbx
	.cfi_def_cfa_offset 32
	.cfi_offset 3, -32
	subq	$112, %rsp
	.seh_stackalloc	112
	.cfi_def_cfa_offset 144
	.seh_endprologue
	leaq	32(%rsp), %rbx
	leaq	112(%rsp), %rdi
	.loc 1 28 0
	call	__main
.LVL31:
	.loc 1 29 0
	leaq	g_Mutex(%rip), %rcx
	xorl	%edx, %edx
	movq	%rbx, %rsi
	call	pthread_mutex_init
.LVL32:
	.p2align 4,,10
.L14:
.LBB56:
	.loc 1 36 0
	leaq	g_Mutex(%rip), %rcx
	call	pthread_mutex_lock
.LVL33:
	.loc 1 37 0
	leaq	_ZZ4mainE5index(%rip), %r9
	leaq	_Z10ThreadFuncPv(%rip), %r8
	xorl	%edx, %edx
	movq	%rsi, %rcx
	addq	$8, %rsi
	call	pthread_create
.LVL34:
	.loc 1 34 0
	cmpq	%rdi, %rsi
	jne	.L14
	.p2align 4,,10
.L16:
.LBE56:
.LBB57:
	.loc 1 42 0
	movq	(%rbx), %rcx
	xorl	%edx, %edx
	addq	$8, %rbx
	call	pthread_join
.LVL35:
	.loc 1 40 0
	cmpq	%rdi, %rbx
	jne	.L16
.LBE57:
	.loc 1 45 0
	leaq	g_Mutex(%rip), %rcx
	call	pthread_mutex_destroy
.LVL36:
	.loc 1 47 0
	xorl	%eax, %eax
	addq	$112, %rsp
	.cfi_def_cfa_offset 32
	popq	%rbx
	.cfi_restore 3
	.cfi_def_cfa_offset 24
	popq	%rsi
	.cfi_restore 4
	.cfi_def_cfa_offset 16
	popq	%rdi
	.cfi_restore 5
	.cfi_def_cfa_offset 8
	ret
	.cfi_endproc
.LFE5356:
	.seh_endproc
	.p2align 4,,15
	.def	_GLOBAL__sub_I_g_Mutex;	.scl	3;	.type	32;	.endef
	.seh_proc	_GLOBAL__sub_I_g_Mutex
_GLOBAL__sub_I_g_Mutex:
.LFB5372:
	.loc 1 47 0
	.cfi_startproc
	subq	$40, %rsp
	.seh_stackalloc	40
	.cfi_def_cfa_offset 48
	.seh_endprologue
.LVL37:
.LBB58:
.LBB59:
.LBB60:
.LBB61:
	.loc 2 7 0
	leaq	g_threadLocal(%rip), %rcx
	call	_ZN12IThreadLocalC2Ev
.LVL38:
.LBE61:
.LBE60:
	.loc 1 16 0
	movq	.refptr.__dso_handle(%rip), %r8
.LBB64:
.LBB62:
	.loc 2 7 0
	leaq	16+_ZTV12CThreadLocalI15TagMyThreadDataE(%rip), %rax
.LBE62:
.LBE64:
	.loc 1 16 0
	leaq	g_threadLocal(%rip), %rdx
	leaq	_ZN12CThreadLocalI15TagMyThreadDataED1Ev(%rip), %rcx
.LBB65:
.LBB63:
	.loc 2 7 0
	movq	%rax, g_threadLocal(%rip)
.LVL39:
.LBE63:
.LBE65:
.LBE59:
.LBE58:
	.loc 1 47 0
	addq	$40, %rsp
	.cfi_def_cfa_offset 8
.LBB67:
.LBB66:
	.loc 1 16 0
	jmp	__cxa_atexit
.LVL40:
.LBE66:
.LBE67:
	.cfi_endproc
.LFE5372:
	.seh_endproc
	.section	.ctors,"w"
	.align 8
	.quad	_GLOBAL__sub_I_g_Mutex
.lcomm _ZZ4mainE5index,4,4
	.globl	_ZTS14INoTrackObject
	.section	.rdata$_ZTS14INoTrackObject,"dr"
	.linkonce same_size
	.align 16
_ZTS14INoTrackObject:
	.ascii "14INoTrackObject\0"
	.globl	_ZTI14INoTrackObject
	.section	.rdata$_ZTI14INoTrackObject,"dr"
	.linkonce same_size
	.align 8
_ZTI14INoTrackObject:
	.quad	_ZTVN10__cxxabiv117__class_type_infoE+16
	.quad	_ZTS14INoTrackObject
	.globl	_ZTS12IThreadLocal
	.section	.rdata$_ZTS12IThreadLocal,"dr"
	.linkonce same_size
	.align 8
_ZTS12IThreadLocal:
	.ascii "12IThreadLocal\0"
	.globl	_ZTI12IThreadLocal
	.section	.rdata$_ZTI12IThreadLocal,"dr"
	.linkonce same_size
	.align 8
_ZTI12IThreadLocal:
	.quad	_ZTVN10__cxxabiv117__class_type_infoE+16
	.quad	_ZTS12IThreadLocal
	.globl	_ZTS15TagMyThreadData
	.section	.rdata$_ZTS15TagMyThreadData,"dr"
	.linkonce same_size
	.align 16
_ZTS15TagMyThreadData:
	.ascii "15TagMyThreadData\0"
	.globl	_ZTI15TagMyThreadData
	.section	.rdata$_ZTI15TagMyThreadData,"dr"
	.linkonce same_size
	.align 8
_ZTI15TagMyThreadData:
	.quad	_ZTVN10__cxxabiv120__si_class_type_infoE+16
	.quad	_ZTS15TagMyThreadData
	.quad	_ZTI14INoTrackObject
	.globl	_ZTS12CThreadLocalI15TagMyThreadDataE
	.section	.rdata$_ZTS12CThreadLocalI15TagMyThreadDataE,"dr"
	.linkonce same_size
	.align 32
_ZTS12CThreadLocalI15TagMyThreadDataE:
	.ascii "12CThreadLocalI15TagMyThreadDataE\0"
	.globl	_ZTI12CThreadLocalI15TagMyThreadDataE
	.section	.rdata$_ZTI12CThreadLocalI15TagMyThreadDataE,"dr"
	.linkonce same_size
	.align 8
_ZTI12CThreadLocalI15TagMyThreadDataE:
	.quad	_ZTVN10__cxxabiv120__si_class_type_infoE+16
	.quad	_ZTS12CThreadLocalI15TagMyThreadDataE
	.quad	_ZTI12IThreadLocal
	.globl	_ZTV15TagMyThreadData
	.section	.rdata$_ZTV15TagMyThreadData,"dr"
	.linkonce same_size
	.align 8
_ZTV15TagMyThreadData:
	.quad	0
	.quad	_ZTI15TagMyThreadData
	.quad	_ZN15TagMyThreadDataD1Ev
	.quad	_ZN15TagMyThreadDataD0Ev
	.globl	_ZTV12CThreadLocalI15TagMyThreadDataE
	.section	.rdata$_ZTV12CThreadLocalI15TagMyThreadDataE,"dr"
	.linkonce same_size
	.align 8
_ZTV12CThreadLocalI15TagMyThreadDataE:
	.quad	0
	.quad	_ZTI12CThreadLocalI15TagMyThreadDataE
	.quad	_ZN12CThreadLocalI15TagMyThreadDataED1Ev
	.quad	_ZN12CThreadLocalI15TagMyThreadDataED0Ev
	.globl	g_threadLocal
	.bss
	.align 16
g_threadLocal:
	.space 16
	.globl	g_Mutex
	.align 8
g_Mutex:
	.space 8
	.text
.Letext0:
	.file 3 "/usr/include/machine/types.h"
	.file 4 "IThreadLocal.h"
	.file 5 "INoTrackObject.h"
	.file 6 "/usr/include/pthread.h"
	.file 7 "/usr/include/stdio.h"
	.data
	.align 8
.LDFCM0:
	.quad	__gxx_personality_seh0
	.ident	"GCC: (GNU) 5.3.0"
	.def	_ZN12IThreadLocal7GetDataEPFPvvE;	.scl	2;	.type	32;	.endef
	.def	printf;	.scl	2;	.type	32;	.endef
	.def	pthread_mutex_unlock;	.scl	2;	.type	32;	.endef
	.def	_ZN14INoTrackObjectnwEm;	.scl	2;	.type	32;	.endef
	.def	_ZN14INoTrackObjectC2Ev;	.scl	2;	.type	32;	.endef
	.def	_ZN14INoTrackObjectdlEPv;	.scl	2;	.type	32;	.endef
	.def	_Unwind_Resume;	.scl	2;	.type	32;	.endef
	.def	_ZN14INoTrackObjectD2Ev;	.scl	2;	.type	32;	.endef
	.def	_ZN12IThreadLocalD2Ev;	.scl	2;	.type	32;	.endef
	.def	__real__ZdlPv;	.scl	2;	.type	32;	.endef
	.def	_ZdlPv;	.scl	2;	.type	32;	.endef
	.def	pthread_mutex_init;	.scl	2;	.type	32;	.endef
	.def	pthread_mutex_lock;	.scl	2;	.type	32;	.endef
	.def	pthread_create;	.scl	2;	.type	32;	.endef
	.def	pthread_join;	.scl	2;	.type	32;	.endef
	.def	pthread_mutex_destroy;	.scl	2;	.type	32;	.endef
	.def	_ZN12IThreadLocalC2Ev;	.scl	2;	.type	32;	.endef
	.def	__cxa_atexit;	.scl	2;	.type	32;	.endef
	.section	.rdata$.refptr.__dso_handle, "dr"
	.globl	.refptr.__dso_handle
	.linkonce	discard
.refptr.__dso_handle:
	.quad	__dso_handle
